target datalayout = "e-m:e-p270:32:32-p271:32:32-p272:64:64-i64:64-i128:128-f80:128-n8:16:32:64-S128"
target triple = "x86_64-pc-linux-gnu"

%struct.lua_State = type { %struct.GCRef, i8, i8, i8, i8, %struct.MRef, %struct.GCRef, ptr, ptr, %struct.MRef, %struct.MRef, %struct.GCRef, %struct.GCRef, ptr, i32 }
%struct.MRef = type { i64 }
%struct.GCRef = type { i64 }
%union.TValue = type { i64 }
%struct.GCproto = type { %struct.GCRef, i8, i8, i8, i8, i32, i32, %struct.GCRef, %struct.MRef, %struct.MRef, i32, i32, i32, i8, i8, i16, %struct.GCRef, i32, i32, %struct.MRef, %struct.MRef, %struct.MRef }
%struct.GCfuncC = type { %struct.GCRef, i8, i8, i8, i8, %struct.GCRef, %struct.GCRef, %struct.MRef, ptr, [1 x %union.TValue] }
%struct.GCfuncL = type { %struct.GCRef, i8, i8, i8, i8, %struct.GCRef, %struct.GCRef, %struct.MRef, [1 x %struct.GCRef] }

@.str.34 = private unnamed_addr constant [78 x i8] c"(for index)\00(for limit)\00(for step)\00(for generator)\00(for state)\00(for control)\00\00", align 1
@.str.37 = private unnamed_addr constant [23 x i8] c"copy of dead GC object\00", align 1

; Function Attrs: alwaysinline nounwind uwtable
define internal void @checklivetv(ptr noundef %0, ptr noundef %1, ptr noundef %2) #4 {
  %4 = alloca ptr, align 8
  %5 = alloca ptr, align 8
  %6 = alloca ptr, align 8
  store ptr %0, ptr %4, align 8, !tbaa !4
  store ptr %1, ptr %5, align 8, !tbaa !19
  store ptr %2, ptr %6, align 8, !tbaa !35
  ret void
}

; Function Attrs: nounwind uwtable
define internal ptr @debug_varname(ptr noundef %0, i32 noundef %1, i32 noundef %2) #0 {
  %4 = alloca ptr, align 8
  %5 = alloca ptr, align 8
  %6 = alloca i32, align 4
  %7 = alloca i32, align 4
  %8 = alloca ptr, align 8
  %9 = alloca i32, align 4
  %10 = alloca ptr, align 8
  %11 = alloca i32, align 4
  %12 = alloca i32, align 4
  %13 = alloca i32, align 4
  %14 = alloca i32, align 4
  store ptr %0, ptr %5, align 8, !tbaa !24
  store i32 %1, ptr %6, align 4, !tbaa !9
  store i32 %2, ptr %7, align 4, !tbaa !9
  call void @llvm.lifetime.start.p0(i64 8, ptr %8) #8
  %15 = load ptr, ptr %5, align 8, !tbaa !24
  %16 = getelementptr inbounds nuw %struct.GCproto, ptr %15, i32 0, i32 21
  %17 = getelementptr inbounds nuw %struct.MRef, ptr %16, i32 0, i32 0
  %18 = load i64, ptr %17, align 8, !tbaa !52
  %19 = inttoptr i64 %18 to ptr
  store ptr %19, ptr %8, align 8, !tbaa !35
  %20 = load ptr, ptr %8, align 8, !tbaa !35
  %21 = icmp ne ptr %20, null
  br i1 %21, label %22, label %98

22:                                               ; preds = %3
  call void @llvm.lifetime.start.p0(i64 4, ptr %9) #8
  store i32 0, ptr %9, align 4, !tbaa !9
  br label %23

23:                                               ; preds = %93, %22
  call void @llvm.lifetime.start.p0(i64 8, ptr %10) #8
  %24 = load ptr, ptr %8, align 8, !tbaa !35
  store ptr %24, ptr %10, align 8, !tbaa !35
  call void @llvm.lifetime.start.p0(i64 4, ptr %11) #8
  %25 = load ptr, ptr %8, align 8, !tbaa !35
  %26 = load i8, ptr %25, align 1, !tbaa !21
  %27 = zext i8 %26 to i32
  store i32 %27, ptr %11, align 4, !tbaa !9
  call void @llvm.lifetime.start.p0(i64 4, ptr %12) #8
  call void @llvm.lifetime.start.p0(i64 4, ptr %13) #8
  %28 = load i32, ptr %11, align 4, !tbaa !9
  %29 = icmp ult i32 %28, 7
  br i1 %29, label %30, label %35

30:                                               ; preds = %23
  %31 = load i32, ptr %11, align 4, !tbaa !9
  %32 = icmp eq i32 %31, 0
  br i1 %32, label %33, label %34

33:                                               ; preds = %30
  store i32 2, ptr %14, align 4
  br label %91

34:                                               ; preds = %30
  br label %44

35:                                               ; preds = %23
  br label %36

36:                                               ; preds = %39, %35
  %37 = load ptr, ptr %8, align 8, !tbaa !35
  %38 = getelementptr inbounds nuw i8, ptr %37, i32 1
  store ptr %38, ptr %8, align 8, !tbaa !35
  br label %39

39:                                               ; preds = %36
  %40 = load ptr, ptr %8, align 8, !tbaa !35
  %41 = load i8, ptr %40, align 1, !tbaa !21
  %42 = icmp ne i8 %41, 0
  br i1 %42, label %36, label %43, !llvm.loop !53

43:                                               ; preds = %39
  br label %44

44:                                               ; preds = %43, %34
  %45 = load ptr, ptr %8, align 8, !tbaa !35
  %46 = getelementptr inbounds nuw i8, ptr %45, i32 1
  store ptr %46, ptr %8, align 8, !tbaa !35
  %47 = load i32, ptr %9, align 4, !tbaa !9
  %48 = call i32 @lj_buf_ruleb128(ptr noundef %8)
  %49 = add i32 %47, %48
  store i32 %49, ptr %12, align 4, !tbaa !9
  store i32 %49, ptr %9, align 4, !tbaa !9
  %50 = load i32, ptr %12, align 4, !tbaa !9
  %51 = load i32, ptr %6, align 4, !tbaa !9
  %52 = icmp ugt i32 %50, %51
  br i1 %52, label %53, label %54

53:                                               ; preds = %44
  store i32 2, ptr %14, align 4
  br label %91

54:                                               ; preds = %44
  %55 = load i32, ptr %12, align 4, !tbaa !9
  %56 = call i32 @lj_buf_ruleb128(ptr noundef %8)
  %57 = add i32 %55, %56
  store i32 %57, ptr %13, align 4, !tbaa !9
  %58 = load i32, ptr %6, align 4, !tbaa !9
  %59 = load i32, ptr %13, align 4, !tbaa !9
  %60 = icmp ult i32 %58, %59
  br i1 %60, label %61, label %90

61:                                               ; preds = %54
  %62 = load i32, ptr %7, align 4, !tbaa !9
  %63 = add i32 %62, -1
  store i32 %63, ptr %7, align 4, !tbaa !9
  %64 = icmp eq i32 %62, 0
  br i1 %64, label %65, label %90

65:                                               ; preds = %61
  %66 = load i32, ptr %11, align 4, !tbaa !9
  %67 = icmp ult i32 %66, 7
  br i1 %67, label %68, label %88

68:                                               ; preds = %65
  store ptr @.str.34, ptr %10, align 8, !tbaa !35
  %69 = load i32, ptr %11, align 4, !tbaa !9
  %70 = add i32 %69, -1
  store i32 %70, ptr %11, align 4, !tbaa !9
  %71 = icmp ne i32 %70, 0
  br i1 %71, label %72, label %87

72:                                               ; preds = %68
  br label %73

73:                                               ; preds = %85, %72
  %74 = load ptr, ptr %10, align 8, !tbaa !35
  %75 = getelementptr inbounds nuw i8, ptr %74, i32 1
  store ptr %75, ptr %10, align 8, !tbaa !35
  %76 = load i8, ptr %74, align 1, !tbaa !21
  %77 = sext i8 %76 to i32
  %78 = icmp ne i32 %77, 0
  br i1 %78, label %83, label %79

79:                                               ; preds = %73
  %80 = load i32, ptr %11, align 4, !tbaa !9
  %81 = add i32 %80, -1
  store i32 %81, ptr %11, align 4, !tbaa !9
  %82 = icmp ne i32 %81, 0
  br label %83

83:                                               ; preds = %79, %73
  %84 = phi i1 [ true, %73 ], [ %82, %79 ]
  br i1 %84, label %85, label %86

85:                                               ; preds = %83
  br label %73, !llvm.loop !54

86:                                               ; preds = %83
  br label %87

87:                                               ; preds = %86, %68
  br label %88

88:                                               ; preds = %87, %65
  %89 = load ptr, ptr %10, align 8, !tbaa !35
  store ptr %89, ptr %4, align 8
  store i32 1, ptr %14, align 4
  br label %91

90:                                               ; preds = %61, %54
  store i32 0, ptr %14, align 4
  br label %91

91:                                               ; preds = %90, %88, %53, %33
  call void @llvm.lifetime.end.p0(i64 4, ptr %13) #8
  call void @llvm.lifetime.end.p0(i64 4, ptr %12) #8
  call void @llvm.lifetime.end.p0(i64 4, ptr %11) #8
  call void @llvm.lifetime.end.p0(i64 8, ptr %10) #8
  %92 = load i32, ptr %14, align 4
  switch i32 %92, label %95 [
    i32 0, label %93
    i32 2, label %94
  ]

93:                                               ; preds = %91
  br label %23

94:                                               ; preds = %91
  store i32 0, ptr %14, align 4
  br label %95

95:                                               ; preds = %94, %91
  call void @llvm.lifetime.end.p0(i64 4, ptr %9) #8
  %96 = load i32, ptr %14, align 4
  switch i32 %96, label %99 [
    i32 0, label %97
  ]

97:                                               ; preds = %95
  br label %98

98:                                               ; preds = %97, %3
  store ptr null, ptr %4, align 8
  store i32 1, ptr %14, align 4
  br label %99

99:                                               ; preds = %98, %95
  call void @llvm.lifetime.end.p0(i64 8, ptr %8) #8
  %100 = load ptr, ptr %4, align 8
  ret ptr %100
}

; Function Attrs: alwaysinline nounwind uwtable
define internal void @copyTV(ptr noundef %0, ptr noundef %1, ptr noundef %2) #4 {
  %4 = alloca ptr, align 8
  %5 = alloca ptr, align 8
  %6 = alloca ptr, align 8
  store ptr %0, ptr %4, align 8, !tbaa !4
  store ptr %1, ptr %5, align 8, !tbaa !19
  store ptr %2, ptr %6, align 8, !tbaa !19
  %7 = load ptr, ptr %5, align 8, !tbaa !19
  %8 = load ptr, ptr %6, align 8, !tbaa !19
  call void @llvm.memcpy.p0.p0.i64(ptr align 8 %7, ptr align 8 %8, i64 8, i1 false), !tbaa.struct !81
  %9 = load ptr, ptr %4, align 8, !tbaa !4
  %10 = load ptr, ptr %5, align 8, !tbaa !19
  call void @checklivetv(ptr noundef %9, ptr noundef %10, ptr noundef @.str.37)
  ret void
}

; Function Attrs: nounwind uwtable
define dso_local ptr @lua_getlocal(ptr noundef %0, ptr noundef %1, i32 noundef %2) #0 {
  %4 = alloca ptr, align 8
  %5 = alloca ptr, align 8
  %6 = alloca i32, align 4
  %7 = alloca ptr, align 8
  %8 = alloca ptr, align 8
  store ptr %0, ptr %4, align 8, !tbaa !4
  store ptr %1, ptr %5, align 8, !tbaa !73
  store i32 %2, ptr %6, align 4, !tbaa !9
  call void @llvm.lifetime.start.p0(i64 8, ptr %7) #8
  store ptr null, ptr %7, align 8, !tbaa !35
  %9 = load ptr, ptr %5, align 8, !tbaa !73
  %10 = icmp ne ptr %9, null
  br i1 %10, label %11, label %38

11:                                               ; preds = %3
  call void @llvm.lifetime.start.p0(i64 8, ptr %8) #8
  %12 = load ptr, ptr %4, align 8, !tbaa !4
  %13 = load ptr, ptr %5, align 8, !tbaa !73
  %14 = load i32, ptr %6, align 4, !tbaa !9
  %15 = call ptr @debug_localname(ptr noundef %12, ptr noundef %13, ptr noundef %7, i32 noundef %14)
  store ptr %15, ptr %8, align 8, !tbaa !19
  %16 = load ptr, ptr %7, align 8, !tbaa !35
  %17 = icmp ne ptr %16, null
  br i1 %17, label %18, label %37

18:                                               ; preds = %11
  %19 = load ptr, ptr %4, align 8, !tbaa !4
  %20 = load ptr, ptr %4, align 8, !tbaa !4
  %21 = getelementptr inbounds nuw %struct.lua_State, ptr %20, i32 0, i32 8
  %22 = load ptr, ptr %21, align 8, !tbaa !75
  %23 = load ptr, ptr %8, align 8, !tbaa !19
  call void @copyTV(ptr noundef %19, ptr noundef %22, ptr noundef %23)
  %24 = load ptr, ptr %4, align 8, !tbaa !4
  %25 = getelementptr inbounds nuw %struct.lua_State, ptr %24, i32 0, i32 8
  %26 = load ptr, ptr %25, align 8, !tbaa !75
  %27 = getelementptr inbounds nuw %union.TValue, ptr %26, i32 1
  store ptr %27, ptr %25, align 8, !tbaa !75
  %28 = load ptr, ptr %4, align 8, !tbaa !4
  %29 = getelementptr inbounds nuw %struct.lua_State, ptr %28, i32 0, i32 9
  %30 = getelementptr inbounds nuw %struct.MRef, ptr %29, i32 0, i32 0
  %31 = load i64, ptr %30, align 8, !tbaa !76
  %32 = inttoptr i64 %31 to ptr
  %33 = icmp uge ptr %27, %32
  br i1 %33, label %34, label %36

34:                                               ; preds = %18
  %35 = load ptr, ptr %4, align 8, !tbaa !4
  call void @lj_state_growstack1(ptr noundef %35)
  br label %36

36:                                               ; preds = %34, %18
  br label %37

37:                                               ; preds = %36, %11
  call void @llvm.lifetime.end.p0(i64 8, ptr %8) #8
  br label %78

38:                                               ; preds = %3
  %39 = load ptr, ptr %4, align 8, !tbaa !4
  %40 = getelementptr inbounds nuw %struct.lua_State, ptr %39, i32 0, i32 8
  %41 = load ptr, ptr %40, align 8, !tbaa !75
  %42 = getelementptr inbounds %union.TValue, ptr %41, i64 -1
  %43 = load i64, ptr %42, align 8, !tbaa !21
  %44 = ashr i64 %43, 47
  %45 = trunc i64 %44 to i32
  %46 = icmp eq i32 %45, -9
  br i1 %46, label %47, label %77

47:                                               ; preds = %38
  %48 = load ptr, ptr %4, align 8, !tbaa !4
  %49 = getelementptr inbounds nuw %struct.lua_State, ptr %48, i32 0, i32 8
  %50 = load ptr, ptr %49, align 8, !tbaa !75
  %51 = getelementptr inbounds %union.TValue, ptr %50, i64 -1
  %52 = getelementptr inbounds nuw %struct.GCRef, ptr %51, i32 0, i32 0
  %53 = load i64, ptr %52, align 8, !tbaa !21
  %54 = and i64 %53, 140737488355327
  %55 = inttoptr i64 %54 to ptr
  %56 = getelementptr inbounds nuw %struct.GCfuncC, ptr %55, i32 0, i32 3
  %57 = load i8, ptr %56, align 2, !tbaa !21
  %58 = zext i8 %57 to i32
  %59 = icmp eq i32 %58, 0
  br i1 %59, label %60, label %77

60:                                               ; preds = %47
  %61 = load ptr, ptr %4, align 8, !tbaa !4
  %62 = getelementptr inbounds nuw %struct.lua_State, ptr %61, i32 0, i32 8
  %63 = load ptr, ptr %62, align 8, !tbaa !75
  %64 = getelementptr inbounds %union.TValue, ptr %63, i64 -1
  %65 = getelementptr inbounds nuw %struct.GCRef, ptr %64, i32 0, i32 0
  %66 = load i64, ptr %65, align 8, !tbaa !21
  %67 = and i64 %66, 140737488355327
  %68 = inttoptr i64 %67 to ptr
  %69 = getelementptr inbounds nuw %struct.GCfuncL, ptr %68, i32 0, i32 7
  %70 = getelementptr inbounds nuw %struct.MRef, ptr %69, i32 0, i32 0
  %71 = load i64, ptr %70, align 8, !tbaa !21
  %72 = inttoptr i64 %71 to ptr
  %73 = getelementptr inbounds i8, ptr %72, i64 -104
  %74 = load i32, ptr %6, align 4, !tbaa !9
  %75 = sub i32 %74, 1
  %76 = call ptr @debug_varname(ptr noundef %73, i32 noundef 0, i32 noundef %75)
  store ptr %76, ptr %7, align 8, !tbaa !35
  br label %77

77:                                               ; preds = %60, %47, %38
  br label %78

78:                                               ; preds = %77, %37
  %79 = load ptr, ptr %7, align 8, !tbaa !35
  call void @llvm.lifetime.end.p0(i64 8, ptr %7) #8
  ret ptr %79
}