; Function Attrs: nounwind uwtable
define dso_local ptr @lua_getlocal(ptr noundef %0, ptr noundef readonly captures(address_is_null) %1, i32 noundef %2) local_unnamed_addr #4 {
  %4 = alloca ptr, align 8
  %5 = alloca ptr, align 8
  call void @llvm.lifetime.start.p0(i64 8, ptr nonnull %5) #11
  store ptr null, ptr %5, align 8, !tbaa !35
  %.not = icmp eq ptr %1, null
  br i1 %.not, label %20, label %6

6:                                                ; preds = %3
  %7 = getelementptr i8, ptr %1, i64 116
  %.val15 = load i32, ptr %7, align 4, !tbaa !56
  %8 = call fastcc ptr @debug_localname(ptr noundef %0, i32 %.val15, ptr noundef %5, i32 noundef %2)
  %9 = load ptr, ptr %5, align 8, !tbaa !35
  %.not13 = icmp eq ptr %9, null
  br i1 %.not13, label %63, label %10

10:                                               ; preds = %6
  %11 = getelementptr inbounds nuw i8, ptr %0, i64 40
  %12 = load ptr, ptr %11, align 8, !tbaa !58
  %13 = load i64, ptr %8, align 8, !tbaa !15
  store i64 %13, ptr %12, align 8, !tbaa !15
  %14 = load ptr, ptr %11, align 8, !tbaa !58
  %15 = getelementptr inbounds nuw i8, ptr %14, i64 8
  store ptr %15, ptr %11, align 8, !tbaa !58
  %16 = getelementptr inbounds nuw i8, ptr %0, i64 48
  %17 = load i64, ptr %16, align 8, !tbaa !59
  %18 = inttoptr i64 %17 to ptr
  %.not14 = icmp ult ptr %15, %18
  br i1 %.not14, label %63, label %19

19:                                               ; preds = %10
  tail call void @lj_state_growstack1(ptr noundef nonnull %0) #11
  br label %63

20:                                               ; preds = %3
  %21 = getelementptr inbounds nuw i8, ptr %0, i64 40
  %22 = load ptr, ptr %21, align 8, !tbaa !58
  %23 = getelementptr inbounds i8, ptr %22, i64 -8
  %24 = load i64, ptr %23, align 8, !tbaa !15
  %.mask = and i64 %24, -140737488355328
  %25 = icmp eq i64 %.mask, -1266637395197952
  br i1 %25, label %26, label %63

26:                                               ; preds = %20
  %27 = and i64 %24, 140737488355327
  %28 = inttoptr i64 %27 to ptr
  %29 = getelementptr inbounds nuw i8, ptr %28, i64 10
  %30 = load i8, ptr %29, align 2, !tbaa !15
  %31 = icmp eq i8 %30, 0
  br i1 %31, label %32, label %63

32:                                               ; preds = %26
  %33 = getelementptr inbounds nuw i8, ptr %28, i64 32
  %34 = load i64, ptr %33, align 8, !tbaa !15
  %35 = inttoptr i64 %34 to ptr
  %36 = getelementptr i8, ptr %35, i64 -8
  %.val = load i64, ptr %36, align 8, !tbaa !32
  call void @llvm.lifetime.start.p0(i64 8, ptr nonnull %4) #11
  %37 = inttoptr i64 %.val to ptr
  store ptr %37, ptr %4, align 8, !tbaa !35
  %.not.i = icmp eq i64 %.val, 0
  br i1 %.not.i, label %debug_varname.exit, label %.preheader19.i.preheader

.preheader19.i.preheader:                         ; preds = %32
  %38 = add i32 %2, -1
  br label %.preheader19.i

.preheader19.i:                                   ; preds = %.preheader19.i.preheader, %62
  %.promoted.i = phi ptr [ %.pre.i, %62 ], [ %37, %.preheader19.i.preheader ]
  %.019.i = phi i32 [ %.120.i, %62 ], [ %38, %.preheader19.i.preheader ]
  %39 = load i8, ptr %.promoted.i, align 1, !tbaa !15
  %40 = icmp ult i8 %39, 7
  br i1 %40, label %41, label %.preheader18.i

41:                                               ; preds = %.preheader19.i
  %42 = icmp eq i8 %39, 0
  br i1 %42, label %debug_varname.exit, label %.loopexit.i

.preheader18.i:                                   ; preds = %.preheader19.i, %.preheader18.i
  %43 = phi ptr [ %44, %.preheader18.i ], [ %.promoted.i, %.preheader19.i ]
  %44 = getelementptr inbounds nuw i8, ptr %43, i64 1
  store ptr %44, ptr %4, align 8, !tbaa !35
  %45 = load i8, ptr %44, align 1, !tbaa !15
  %.not35.i = icmp eq i8 %45, 0
  br i1 %.not35.i, label %.loopexit.i, label %.preheader18.i, !llvm.loop !37

.loopexit.i:                                      ; preds = %.preheader18.i, %41
  %46 = phi ptr [ %.promoted.i, %41 ], [ %44, %.preheader18.i ]
  %47 = getelementptr inbounds nuw i8, ptr %46, i64 1
  store ptr %47, ptr %4, align 8, !tbaa !35
  %48 = call i32 @lj_buf_ruleb128(ptr noundef nonnull %4) #11
  %.not16 = icmp eq i32 %48, 0
  br i1 %.not16, label %49, label %debug_varname.exit

49:                                               ; preds = %.loopexit.i
  %50 = call i32 @lj_buf_ruleb128(ptr noundef nonnull %4) #11
  %.not17 = icmp eq i32 %50, 0
  br i1 %.not17, label %62, label %51

51:                                               ; preds = %49
  %52 = add i32 %.019.i, -1
  %53 = icmp eq i32 %.019.i, 0
  br i1 %53, label %54, label %62

54:                                               ; preds = %51
  br i1 %40, label %55, label %debug_varname.exit

55:                                               ; preds = %54
  %56 = zext nneg i8 %39 to i32
  %57 = add nsw i32 %56, -1
  %.not36.i = icmp eq i32 %57, 0
  br i1 %.not36.i, label %debug_varname.exit, label %.preheader.i.outer

.preheader.i.outer:                               ; preds = %55, %60
  %.125.i.ph = phi ptr [ %58, %60 ], [ @.str.34, %55 ]
  %.022.i.ph = phi i32 [ %61, %60 ], [ %57, %55 ]
  br label %.preheader.i

.preheader.i:                                     ; preds = %.preheader.i.outer, %.preheader.i
  %.125.i = phi ptr [ %58, %.preheader.i ], [ %.125.i.ph, %.preheader.i.outer ]
  %58 = getelementptr inbounds nuw i8, ptr %.125.i, i64 1
  %59 = load i8, ptr %.125.i, align 1, !tbaa !15
  %.not37.i = icmp eq i8 %59, 0
  br i1 %.not37.i, label %60, label %.preheader.i, !llvm.loop !38

60:                                               ; preds = %.preheader.i
  %61 = add i32 %.022.i.ph, -1
  %.not38.i = icmp eq i32 %61, 0
  br i1 %.not38.i, label %debug_varname.exit, label %.preheader.i.outer, !llvm.loop !38

62:                                               ; preds = %51, %49
  %.120.i = phi i32 [ %52, %51 ], [ %.019.i, %49 ]
  %.pre.i = load ptr, ptr %4, align 8, !tbaa !35
  br label %.preheader19.i

debug_varname.exit:                               ; preds = %41, %.loopexit.i, %60, %32, %54, %55
  %.2.i = phi ptr [ %.promoted.i, %54 ], [ @.str.34, %55 ], [ null, %32 ], [ %58, %60 ], [ null, %.loopexit.i ], [ null, %41 ]
  call void @llvm.lifetime.end.p0(i64 8, ptr nonnull %4) #11
  br label %63

63:                                               ; preds = %6, %19, %10, %20, %26, %debug_varname.exit
  %64 = phi ptr [ null, %6 ], [ %9, %19 ], [ %9, %10 ], [ null, %20 ], [ null, %26 ], [ %.2.i, %debug_varname.exit ]
  call void @llvm.lifetime.end.p0(i64 8, ptr nonnull %5) #11
  ret ptr %64
}